; Function Attrs: nounwind uwtable
define internal void @caddy_dest(ptr noundef captures(none) %0) #0 {
  %2 = getelementptr inbounds nuw i8, ptr %0, i64 152
  %3 = load ptr, ptr %2, align 8, !tbaa !77
  %.not = icmp eq ptr %3, null
  br i1 %.not, label %5, label %4

4:                                                ; preds = %1
  tail call void @PMIx_Argv_free(ptr noundef nonnull %3) #18
  br label %5

5:                                                ; preds = %4, %1
  %6 = getelementptr inbounds nuw i8, ptr %0, i64 160
  %7 = load ptr, ptr %6, align 8, !tbaa !78
  %.not12 = icmp eq ptr %7, null
  br i1 %.not12, label %35, label %8

8:                                                ; preds = %5
  %9 = tail call i32 @pthread_mutex_lock(ptr noundef nonnull %7) #18
  %10 = icmp eq i32 %9, 35
  br i1 %10, label %11, label %pmix_obj_update.exit

11:                                               ; preds = %8
  %12 = tail call ptr @__errno_location() #21
  store i32 35, ptr %12, align 4, !tbaa !34
  tail call void @perror(ptr noundef nonnull @.str.1) #22
  tail call void @abort() #23
  unreachable

pmix_obj_update.exit:                             ; preds = %8
  %13 = getelementptr inbounds nuw i8, ptr %7, i64 48
  %14 = load i32, ptr %13, align 8, !tbaa !38
  %15 = add nsw i32 %14, -1
  store i32 %15, ptr %13, align 8, !tbaa !38
  %16 = tail call i32 @pthread_mutex_unlock(ptr noundef nonnull %7) #18
  %17 = icmp eq i32 %15, 0
  br i1 %17, label %18, label %35

18:                                               ; preds = %pmix_obj_update.exit
  %19 = getelementptr inbounds nuw i8, ptr %7, i64 40
  %20 = load ptr, ptr %19, align 8, !tbaa !37
  %21 = getelementptr inbounds nuw i8, ptr %20, i64 48
  %22 = load ptr, ptr %21, align 8, !tbaa !86
  %23 = load ptr, ptr %22, align 8, !tbaa !40
  %.not6.i = icmp eq ptr %23, null
  br i1 %.not6.i, label %pmix_obj_run_destructors.exit, label %.lr.ph.i

.lr.ph.i:                                         ; preds = %18, %.lr.ph.i
  %24 = phi ptr [ %26, %.lr.ph.i ], [ %23, %18 ]
  %.07.i = phi ptr [ %25, %.lr.ph.i ], [ %22, %18 ]
  tail call void %24(ptr noundef nonnull %7) #18
  %25 = getelementptr inbounds nuw i8, ptr %.07.i, i64 8
  %26 = load ptr, ptr %25, align 8, !tbaa !40
  %.not.i = icmp eq ptr %26, null
  br i1 %.not.i, label %pmix_obj_run_destructors.exit, label %.lr.ph.i, !llvm.loop !87

pmix_obj_run_destructors.exit:                    ; preds = %.lr.ph.i, %18
  %27 = getelementptr inbounds nuw i8, ptr %7, i64 96
  %28 = load ptr, ptr %27, align 8, !tbaa !88
  %.not13 = icmp eq ptr %28, null
  br i1 %.not13, label %32, label %29

29:                                               ; preds = %pmix_obj_run_destructors.exit
  %30 = getelementptr inbounds nuw i8, ptr %7, i64 56
  %31 = load ptr, ptr %6, align 8, !tbaa !78
  tail call void %28(ptr noundef nonnull %30, ptr noundef %31) #18
  br label %34

32:                                               ; preds = %pmix_obj_run_destructors.exit
  %33 = load ptr, ptr %6, align 8, !tbaa !78
  tail call void @free(ptr noundef %33) #18
  br label %34

34:                                               ; preds = %32, %29
  store ptr null, ptr %6, align 8, !tbaa !78
  br label %35

35:                                               ; preds = %pmix_obj_update.exit, %34, %5
  ret void
}